target datalayout = "e-m:e-p270:32:32-p271:32:32-p272:64:64-i64:64-i128:128-f80:128-n8:16:32:64-S128"
target triple = "x86_64-pc-linux-gnu"

@.str.9 = private unnamed_addr constant [25 x i8] c"../openssl/test/dhtest.c\00", align 1
@.str.134 = private unnamed_addr constant [63 x i8] c"pkey = d2i_PUBKEY_ex(NULL, &p, sizeof(dh_pub_der), NULL, NULL)\00", align 1
@.str.135 = private unnamed_addr constant [68 x i8] c"EVP_PKEY_get_int_param(pkey, OSSL_PKEY_PARAM_DH_PRIV_LEN, &privlen)\00", align 1
@.str.136 = private unnamed_addr constant [9 x i8] c"priv_len\00", align 1
@.str.137 = private unnamed_addr constant [8 x i8] c"privlen\00", align 1
@.str.138 = private unnamed_addr constant [5 x i8] c"1024\00", align 1

; Function Attrs: nounwind uwtable
define internal i32 @dh_load_pkcs3_namedgroup_privlen_test() #0 {
  %1 = alloca i32, align 4
  %2 = alloca i32, align 4
  %3 = alloca ptr, align 8
  %4 = alloca ptr, align 8
  call void @llvm.lifetime.start.p0(i64 4, ptr %1) #3
  call void @llvm.lifetime.start.p0(i64 4, ptr %2) #3
  store i32 0, ptr %2, align 4, !tbaa !15
  call void @llvm.lifetime.start.p0(i64 8, ptr %3) #3
  store ptr null, ptr %3, align 8, !tbaa !33
  call void @llvm.lifetime.start.p0(i64 8, ptr %4) #3
  store ptr @dh_pub_der, ptr %4, align 8, !tbaa !13
  %5 = call ptr @d2i_PUBKEY_ex(ptr noundef null, ptr noundef %4, i64 noundef 556, ptr noundef null, ptr noundef null)
  store ptr %5, ptr %3, align 8, !tbaa !33
  %6 = call i32 @test_ptr(ptr noundef @.str.9, i32 noundef 927, ptr noundef @.str.134, ptr noundef %5)
  %7 = icmp ne i32 %6, 0
  br i1 %7, label %8, label %19

8:                                                ; preds = %0
  %9 = load ptr, ptr %3, align 8, !tbaa !33
  %10 = call i32 @EVP_PKEY_get_int_param(ptr noundef %9, ptr noundef @.str.136, ptr noundef %2)
  %11 = icmp ne i32 %10, 0
  %12 = zext i1 %11 to i32
  %13 = call i32 @test_true(ptr noundef @.str.9, i32 noundef 929, ptr noundef @.str.135, i32 noundef %12)
  %14 = icmp ne i32 %13, 0
  br i1 %14, label %15, label %19

15:                                               ; preds = %8
  %16 = load i32, ptr %2, align 4, !tbaa !15
  %17 = call i32 @test_int_eq(ptr noundef @.str.9, i32 noundef 930, ptr noundef @.str.137, ptr noundef @.str.138, i32 noundef %16, i32 noundef 1024)
  %18 = icmp ne i32 %17, 0
  br label %19

19:                                               ; preds = %15, %8, %0
  %20 = phi i1 [ false, %8 ], [ false, %0 ], [ %18, %15 ]
  %21 = zext i1 %20 to i32
  store i32 %21, ptr %1, align 4, !tbaa !15
  %22 = load ptr, ptr %3, align 8, !tbaa !33
  call void @EVP_PKEY_free(ptr noundef %22)
  %23 = load i32, ptr %1, align 4, !tbaa !15
  call void @llvm.lifetime.end.p0(i64 8, ptr %4) #3
  call void @llvm.lifetime.end.p0(i64 8, ptr %3) #3
  call void @llvm.lifetime.end.p0(i64 4, ptr %2) #3
  call void @llvm.lifetime.end.p0(i64 4, ptr %1) #3
  ret i32 %23
}