; Function Attrs: nounwind uwtable
define internal range(i32 0, 2) i32 @dh_load_pkcs3_namedgroup_privlen_test() #0 {
  %1 = alloca i32, align 4
  %2 = alloca ptr, align 8
  call void @llvm.lifetime.start.p0(i64 4, ptr nonnull %1) #4
  store i32 0, ptr %1, align 4, !tbaa !9
  call void @llvm.lifetime.start.p0(i64 8, ptr nonnull %2) #4
  store ptr @dh_pub_der, ptr %2, align 8, !tbaa !27
  %3 = call ptr @d2i_PUBKEY_ex(ptr noundef null, ptr noundef nonnull %2, i64 noundef 556, ptr noundef null, ptr noundef null) #4
  %4 = call i32 @test_ptr(ptr noundef nonnull @.str.9, i32 noundef 927, ptr noundef nonnull @.str.134, ptr noundef %3) #4
  %.not = icmp eq i32 %4, 0
  br i1 %.not, label %15, label %5

5:                                                ; preds = %0
  %6 = call i32 @EVP_PKEY_get_int_param(ptr noundef %3, ptr noundef nonnull @.str.136, ptr noundef nonnull %1) #4
  %7 = icmp ne i32 %6, 0
  %8 = zext i1 %7 to i32
  %9 = call i32 @test_true(ptr noundef nonnull @.str.9, i32 noundef 929, ptr noundef nonnull @.str.135, i32 noundef %8) #4
  %.not2 = icmp eq i32 %9, 0
  br i1 %.not2, label %15, label %10

10:                                               ; preds = %5
  %11 = load i32, ptr %1, align 4, !tbaa !9
  %12 = call i32 @test_int_eq(ptr noundef nonnull @.str.9, i32 noundef 930, ptr noundef nonnull @.str.137, ptr noundef nonnull @.str.138, i32 noundef %11, i32 noundef 1024) #4
  %13 = icmp ne i32 %12, 0
  %14 = zext i1 %13 to i32
  br label %15

15:                                               ; preds = %10, %5, %0
  %16 = phi i32 [ 0, %5 ], [ 0, %0 ], [ %14, %10 ]
  call void @EVP_PKEY_free(ptr noundef %3) #4
  call void @llvm.lifetime.end.p0(i64 8, ptr nonnull %2) #4
  call void @llvm.lifetime.end.p0(i64 4, ptr nonnull %1) #4
  ret i32 %16
}